; Function Attrs: mustprogress uwtable
define hidden void @_ZN7datalog21collect_and_transformERK7svectorIjjES3_RS1_(ptr nocapture noundef nonnull readonly align 8 dereferenceable(8) %src, ptr nocapture noundef nonnull readonly align 8 dereferenceable(8) %translation, ptr noundef nonnull align 8 dereferenceable(8) %res) local_unnamed_addr #3 {
entry:
  %0 = load ptr, ptr %src, align 8
  %cmp.i.i = icmp eq ptr %0, null
  br i1 %cmp.i.i, label %for.end, label %_ZNK6vectorIjLb0EjE3endEv.exit

_ZNK6vectorIjLb0EjE3endEv.exit:                   ; preds = %entry
  %arrayidx.i.i = getelementptr inbounds i8, ptr %0, i64 -4
  %1 = load i32, ptr %arrayidx.i.i, align 4
  %2 = zext i32 %1 to i64
  %add.ptr.i = getelementptr inbounds i32, ptr %0, i64 %2
  %cmp.not6 = icmp eq i32 %1, 0
  br i1 %cmp.not6, label %for.end, label %for.body

for.body:                                         ; preds = %_ZNK6vectorIjLb0EjE3endEv.exit, %for.inc
  %__begin1.07 = phi ptr [ %incdec.ptr, %for.inc ], [ %0, %_ZNK6vectorIjLb0EjE3endEv.exit ]
  %3 = load i32, ptr %__begin1.07, align 4
  %4 = load ptr, ptr %translation, align 8
  %idxprom.i = zext i32 %3 to i64
  %arrayidx.i = getelementptr inbounds i32, ptr %4, i64 %idxprom.i
  %5 = load i32, ptr %arrayidx.i, align 4
  %cmp3.not = icmp eq i32 %5, -1
  br i1 %cmp3.not, label %for.inc, label %if.then

if.then:                                          ; preds = %for.body
  %6 = load ptr, ptr %res, align 8
  %cmp.i = icmp eq ptr %6, null
  br i1 %cmp.i, label %if.then.i, label %lor.lhs.false.i

lor.lhs.false.i:                                  ; preds = %if.then
  %arrayidx.i4 = getelementptr inbounds i8, ptr %6, i64 -4
  %7 = load i32, ptr %arrayidx.i4, align 4
  %arrayidx4.i = getelementptr inbounds i8, ptr %6, i64 -8
  %8 = load i32, ptr %arrayidx4.i, align 4
  %cmp5.i = icmp eq i32 %7, %8
  br i1 %cmp5.i, label %if.then.i, label %_ZN6vectorIjLb0EjE9push_backERKj.exit

if.then.i:                                        ; preds = %lor.lhs.false.i, %if.then
  tail call void @_ZN6vectorIjLb0EjE13expand_vectorEv(ptr noundef nonnull align 8 dereferenceable(8) %res)
  %.pre.i = load ptr, ptr %res, align 8
  %arrayidx8.phi.trans.insert.i = getelementptr inbounds i8, ptr %.pre.i, i64 -4
  %.pre1.i = load i32, ptr %arrayidx8.phi.trans.insert.i, align 4
  br label %_ZN6vectorIjLb0EjE9push_backERKj.exit

_ZN6vectorIjLb0EjE9push_backERKj.exit:            ; preds = %lor.lhs.false.i, %if.then.i
  %9 = phi i32 [ %.pre1.i, %if.then.i ], [ %7, %lor.lhs.false.i ]
  %10 = phi ptr [ %.pre.i, %if.then.i ], [ %6, %lor.lhs.false.i ]
  %idx.ext.i = zext i32 %9 to i64
  %add.ptr.i5 = getelementptr inbounds i32, ptr %10, i64 %idx.ext.i
  store i32 %5, ptr %add.ptr.i5, align 4
  %11 = load ptr, ptr %res, align 8
  %arrayidx10.i = getelementptr inbounds i8, ptr %11, i64 -4
  %12 = load i32, ptr %arrayidx10.i, align 4
  %inc.i = add i32 %12, 1
  store i32 %inc.i, ptr %arrayidx10.i, align 4
  br label %for.inc

for.inc:                                          ; preds = %for.body, %_ZN6vectorIjLb0EjE9push_backERKj.exit
  %incdec.ptr = getelementptr inbounds i8, ptr %__begin1.07, i64 4
  %cmp.not = icmp eq ptr %incdec.ptr, %add.ptr.i
  br i1 %cmp.not, label %for.end, label %for.body

for.end:                                          ; preds = %for.inc, %entry, %_ZNK6vectorIjLb0EjE3endEv.exit
  ret void
}